; Function Attrs: nounwind uwtable
define ptr @l_Lean_PrettyPrinter_Formatter_instMonadTraverserFormatterM___lambda__1___boxed(ptr noundef %0, ptr noundef %1, ptr noundef %2, ptr noundef %3, ptr noundef %4) #0 {
  %6 = tail call ptr @l_Lean_PrettyPrinter_Formatter_instMonadTraverserFormatterM___lambda__1(ptr poison, ptr noundef %1, ptr poison, ptr poison, ptr noundef %4)
  %7 = ptrtoint ptr %3 to i64
  %8 = and i64 %7, 1
  %.not = icmp eq i64 %8, 0
  br i1 %.not, label %9, label %lean_dec.exit12

9:                                                ; preds = %5
  %10 = load i32, ptr %3, align 4, !tbaa !8
  %11 = icmp sgt i32 %10, 1
  br i1 %11, label %12, label %14, !prof !11

12:                                               ; preds = %9
  %13 = add nsw i32 %10, -1
  store i32 %13, ptr %3, align 4, !tbaa !8
  br label %lean_dec.exit12

14:                                               ; preds = %9
  %.not.i = icmp eq i32 %10, 0
  br i1 %.not.i, label %lean_dec.exit12, label %15

15:                                               ; preds = %14
  tail call void @lean_dec_ref_cold(ptr noundef nonnull %3) #6
  br label %lean_dec.exit12

lean_dec.exit12:                                  ; preds = %15, %14, %12, %5
  %16 = ptrtoint ptr %2 to i64
  %17 = and i64 %16, 1
  %.not19 = icmp eq i64 %17, 0
  br i1 %.not19, label %18, label %lean_dec.exit11

18:                                               ; preds = %lean_dec.exit12
  %19 = load i32, ptr %2, align 4, !tbaa !8
  %20 = icmp sgt i32 %19, 1
  br i1 %20, label %21, label %23, !prof !11

21:                                               ; preds = %18
  %22 = add nsw i32 %19, -1
  store i32 %22, ptr %2, align 4, !tbaa !8
  br label %lean_dec.exit11

23:                                               ; preds = %18
  %.not.i13 = icmp eq i32 %19, 0
  br i1 %.not.i13, label %lean_dec.exit11, label %24

24:                                               ; preds = %23
  tail call void @lean_dec_ref_cold(ptr noundef nonnull %2) #6
  br label %lean_dec.exit11

lean_dec.exit11:                                  ; preds = %24, %23, %21, %lean_dec.exit12
  %25 = ptrtoint ptr %1 to i64
  %26 = and i64 %25, 1
  %.not20 = icmp eq i64 %26, 0
  br i1 %.not20, label %27, label %lean_dec.exit10

27:                                               ; preds = %lean_dec.exit11
  %28 = load i32, ptr %1, align 4, !tbaa !8
  %29 = icmp sgt i32 %28, 1
  br i1 %29, label %30, label %32, !prof !11

30:                                               ; preds = %27
  %31 = add nsw i32 %28, -1
  store i32 %31, ptr %1, align 4, !tbaa !8
  br label %lean_dec.exit10

32:                                               ; preds = %27
  %.not.i15 = icmp eq i32 %28, 0
  br i1 %.not.i15, label %lean_dec.exit10, label %33

33:                                               ; preds = %32
  tail call void @lean_dec_ref_cold(ptr noundef nonnull %1) #6
  br label %lean_dec.exit10

lean_dec.exit10:                                  ; preds = %33, %32, %30, %lean_dec.exit11
  %34 = ptrtoint ptr %0 to i64
  %35 = and i64 %34, 1
  %.not21 = icmp eq i64 %35, 0
  br i1 %.not21, label %36, label %lean_dec.exit

36:                                               ; preds = %lean_dec.exit10
  %37 = load i32, ptr %0, align 4, !tbaa !8
  %38 = icmp sgt i32 %37, 1
  br i1 %38, label %39, label %41, !prof !11

39:                                               ; preds = %36
  %40 = add nsw i32 %37, -1
  store i32 %40, ptr %0, align 4, !tbaa !8
  br label %lean_dec.exit

41:                                               ; preds = %36
  %.not.i17 = icmp eq i32 %37, 0
  br i1 %.not.i17, label %lean_dec.exit, label %42

42:                                               ; preds = %41
  tail call void @lean_dec_ref_cold(ptr noundef nonnull %0) #6
  br label %lean_dec.exit

lean_dec.exit:                                    ; preds = %42, %41, %39, %lean_dec.exit10
  ret ptr %6
}